; Function Attrs: mustprogress nofree norecurse nosync nounwind willreturn memory(argmem: read) uwtable
define hidden noundef zeroext i1 @_ZNK4cvc58internal6theory5arith6linear14ArithVariables16boundsQueueEmptyEv(ptr nocapture noundef nonnull readonly align 8 dereferenceable(568) %this) local_unnamed_addr #6 align 2 {
entry:
  %d_boundsQueue = getelementptr inbounds i8, ptr %this, i64 256
  %0 = load ptr, ptr %d_boundsQueue, align 8
  %_M_finish.i.i.i = getelementptr inbounds i8, ptr %this, i64 264
  %1 = load ptr, ptr %_M_finish.i.i.i, align 8
  %cmp.i.i.i = icmp eq ptr %0, %1
  ret i1 %cmp.i.i.i
}